; Function Attrs: mustprogress uwtable
define noundef ptr @_ZN3re29Prefilter4Info11EmptyStringEv() local_unnamed_addr #0 align 2 personality ptr @__gxx_personality_v0 {
entry:
  %__an.i.i = alloca %"struct.std::_Rb_tree<std::__cxx11::basic_string<char>, std::__cxx11::basic_string<char>, std::_Identity<std::__cxx11::basic_string<char>>, re2::Prefilter::LengthThenLex>::_Alloc_node", align 8
  %ref.tmp = alloca %"class.std::__cxx11::basic_string", align 8
  %ref.tmp1 = alloca %"class.std::allocator", align 1
  %call = tail call noalias noundef nonnull dereferenceable(64) ptr @_Znwm(i64 noundef 64) #17
  invoke void @_ZN3re29Prefilter4InfoC1Ev(ptr noundef nonnull align 8 dereferenceable(64) %call)
          to label %invoke.cont unwind label %lpad

invoke.cont:                                      ; preds = %entry
  %is_exact_ = getelementptr inbounds i8, ptr %call, i64 48
  store i8 1, ptr %is_exact_, align 8
  call void @_ZNSaIcEC1Ev(ptr noundef nonnull align 1 dereferenceable(1) %ref.tmp1) #16
  %call.i5 = invoke noundef ptr @_ZNSt7__cxx1112basic_stringIcSt11char_traitsIcESaIcEE13_M_local_dataEv(ptr noundef nonnull align 8 dereferenceable(32) %ref.tmp)
          to label %call.i.noexc unwind label %lpad2

call.i.noexc:                                     ; preds = %invoke.cont
  invoke void @_ZNSt7__cxx1112basic_stringIcSt11char_traitsIcESaIcEE12_Alloc_hiderC1EPcRKS3_(ptr noundef nonnull align 8 dereferenceable(8) %ref.tmp, ptr noundef %call.i5, ptr noundef nonnull align 1 dereferenceable(1) %ref.tmp1)
          to label %.noexc unwind label %lpad2

.noexc:                                           ; preds = %call.i.noexc
  invoke void @_ZNSt7__cxx1112basic_stringIcSt11char_traitsIcESaIcEE12_M_constructIPKcEEvT_S8_St20forward_iterator_tag(ptr noundef nonnull align 8 dereferenceable(32) %ref.tmp, ptr noundef nonnull @.str.1, ptr noundef nonnull @.str.1)
          to label %invoke.cont3 unwind label %lpad.i

lpad.i:                                           ; preds = %.noexc
  %0 = landingpad { ptr, i32 }
          cleanup
  call void @_ZNSaIcED2Ev(ptr noundef nonnull align 1 dereferenceable(1) %ref.tmp) #16
  br label %ehcleanup

invoke.cont3:                                     ; preds = %.noexc
  call void @llvm.lifetime.start.p0(i64 8, ptr nonnull %__an.i.i)
  %call2.i.i6 = invoke { ptr, ptr } @_ZNSt8_Rb_treeINSt7__cxx1112basic_stringIcSt11char_traitsIcESaIcEEES5_St9_IdentityIS5_EN3re29Prefilter13LengthThenLexESaIS5_EE24_M_get_insert_unique_posERKS5_(ptr noundef nonnull align 8 dereferenceable(48) %call, ptr noundef nonnull align 8 dereferenceable(32) %ref.tmp)
          to label %call2.i.i.noexc unwind label %lpad4

call2.i.i.noexc:                                  ; preds = %invoke.cont3
  %1 = extractvalue { ptr, ptr } %call2.i.i6, 1
  %tobool.not.i.i = icmp eq ptr %1, null
  br i1 %tobool.not.i.i, label %invoke.cont5, label %if.then.i.i

if.then.i.i:                                      ; preds = %call2.i.i.noexc
  %2 = extractvalue { ptr, ptr } %call2.i.i6, 0
  store ptr %call, ptr %__an.i.i, align 8
  %call5.i.i7 = invoke ptr @_ZNSt8_Rb_treeINSt7__cxx1112basic_stringIcSt11char_traitsIcESaIcEEES5_St9_IdentityIS5_EN3re29Prefilter13LengthThenLexESaIS5_EE10_M_insert_IS5_NSC_11_Alloc_nodeEEESt17_Rb_tree_iteratorIS5_EPSt18_Rb_tree_node_baseSI_OT_RT0_(ptr noundef nonnull align 8 dereferenceable(48) %call, ptr noundef %2, ptr noundef nonnull %1, ptr noundef nonnull align 8 dereferenceable(32) %ref.tmp, ptr noundef nonnull align 8 dereferenceable(8) %__an.i.i)
          to label %invoke.cont5 unwind label %lpad4

invoke.cont5:                                     ; preds = %call2.i.i.noexc, %if.then.i.i
  call void @llvm.lifetime.end.p0(i64 8, ptr nonnull %__an.i.i)
  call void @_ZNSt7__cxx1112basic_stringIcSt11char_traitsIcESaIcEED1Ev(ptr noundef nonnull align 8 dereferenceable(32) %ref.tmp) #16
  call void @_ZNSaIcED1Ev(ptr noundef nonnull align 1 dereferenceable(1) %ref.tmp1) #16
  ret ptr %call

lpad:                                             ; preds = %entry
  %3 = landingpad { ptr, i32 }
          cleanup
  tail call void @_ZdlPv(ptr noundef nonnull %call) #18
  br label %eh.resume

lpad2:                                            ; preds = %call.i.noexc, %invoke.cont
  %4 = landingpad { ptr, i32 }
          cleanup
  br label %ehcleanup

lpad4:                                            ; preds = %if.then.i.i, %invoke.cont3
  %5 = landingpad { ptr, i32 }
          cleanup
  call void @_ZNSt7__cxx1112basic_stringIcSt11char_traitsIcESaIcEED1Ev(ptr noundef nonnull align 8 dereferenceable(32) %ref.tmp) #16
  br label %ehcleanup

ehcleanup:                                        ; preds = %lpad2, %lpad.i, %lpad4
  %.pn = phi { ptr, i32 } [ %5, %lpad4 ], [ %4, %lpad2 ], [ %0, %lpad.i ]
  call void @_ZNSaIcED1Ev(ptr noundef nonnull align 1 dereferenceable(1) %ref.tmp1) #16
  br label %eh.resume

eh.resume:                                        ; preds = %ehcleanup, %lpad
  %.pn.pn = phi { ptr, i32 } [ %.pn, %ehcleanup ], [ %3, %lpad ]
  resume { ptr, i32 } %.pn.pn
}